target datalayout = "e-m:e-p270:32:32-p271:32:32-p272:64:64-i64:64-i128:128-f80:128-n8:16:32:64-S128"
target triple = "x86_64-pc-linux-gnu"

%struct.Abc_Obj_t_ = type { ptr, ptr, i32, i32, %struct.Vec_Int_t_, %struct.Vec_Int_t_, %union.anon, %union.anon.0 }
%struct.Vec_Int_t_ = type { i32, i32, ptr }
%union.anon = type { ptr }
%union.anon.0 = type { ptr }
%struct.Abc_Ntk_t_ = type { i32, i32, ptr, ptr, ptr, ptr, ptr, ptr, ptr, ptr, ptr, ptr, ptr, [11 x i32], i32, i32, i32, i32, ptr, i32, ptr, ptr, i32, i32, i32, double, i32, %struct.Vec_Int_t_, ptr, ptr, ptr, ptr, ptr, float, i32, ptr, ptr, ptr, ptr, ptr, ptr, ptr, ptr, ptr, ptr, ptr, ptr, ptr, ptr, ptr, ptr, ptr, ptr, ptr, ptr, ptr, ptr }

; Function Attrs: inlinehint nounwind uwtable
define internal ptr @Abc_NtkCreateNode(ptr noundef %0) #2 {
  %2 = alloca ptr, align 8
  store ptr %0, ptr %2, align 8, !tbaa !41
  %3 = load ptr, ptr %2, align 8, !tbaa !41
  %4 = call ptr @Abc_NtkCreateObj(ptr noundef %3, i32 noundef 7)
  ret ptr %4
}

; Function Attrs: nounwind uwtable
define ptr @Abc_NtkBddMux412a(ptr noundef %0, ptr noundef %1) #0 {
  %3 = alloca ptr, align 8
  %4 = alloca ptr, align 8
  %5 = alloca ptr, align 8
  %6 = alloca ptr, align 8
  %7 = alloca ptr, align 8
  %8 = alloca ptr, align 8
  %9 = alloca ptr, align 8
  %10 = alloca ptr, align 8
  store ptr %0, ptr %3, align 8, !tbaa !41
  store ptr %1, ptr %4, align 8, !tbaa !53
  call void @llvm.lifetime.start.p0(i64 8, ptr %5) #12
  %11 = load ptr, ptr %3, align 8, !tbaa !41
  %12 = getelementptr inbounds nuw %struct.Abc_Ntk_t_, ptr %11, i32 0, i32 30
  %13 = load ptr, ptr %12, align 8, !tbaa !55
  store ptr %13, ptr %5, align 8, !tbaa !56
  call void @llvm.lifetime.start.p0(i64 8, ptr %6) #12
  call void @llvm.lifetime.start.p0(i64 8, ptr %7) #12
  call void @llvm.lifetime.start.p0(i64 8, ptr %8) #12
  call void @llvm.lifetime.start.p0(i64 8, ptr %9) #12
  call void @llvm.lifetime.start.p0(i64 8, ptr %10) #12
  %14 = load ptr, ptr %3, align 8, !tbaa !41
  %15 = call ptr @Abc_NtkCreateNode(ptr noundef %14)
  store ptr %15, ptr %6, align 8, !tbaa !3
  %16 = load ptr, ptr %6, align 8, !tbaa !3
  %17 = load ptr, ptr %4, align 8, !tbaa !53
  %18 = getelementptr inbounds ptr, ptr %17, i64 1
  %19 = load ptr, ptr %18, align 8, !tbaa !3
  call void @Abc_ObjAddFanin(ptr noundef %16, ptr noundef %19)
  %20 = load ptr, ptr %6, align 8, !tbaa !3
  %21 = load ptr, ptr %4, align 8, !tbaa !53
  %22 = getelementptr inbounds ptr, ptr %21, i64 2
  %23 = load ptr, ptr %22, align 8, !tbaa !3
  call void @Abc_ObjAddFanin(ptr noundef %20, ptr noundef %23)
  %24 = load ptr, ptr %6, align 8, !tbaa !3
  %25 = load ptr, ptr %4, align 8, !tbaa !53
  %26 = getelementptr inbounds ptr, ptr %25, i64 3
  %27 = load ptr, ptr %26, align 8, !tbaa !3
  call void @Abc_ObjAddFanin(ptr noundef %24, ptr noundef %27)
  %28 = load ptr, ptr %5, align 8, !tbaa !56
  %29 = call ptr @Cudd_bddIthVar(ptr noundef %28, i32 noundef 0)
  store ptr %29, ptr %8, align 8, !tbaa !58
  %30 = load ptr, ptr %5, align 8, !tbaa !56
  %31 = call ptr @Cudd_bddIthVar(ptr noundef %30, i32 noundef 1)
  store ptr %31, ptr %9, align 8, !tbaa !58
  %32 = load ptr, ptr %5, align 8, !tbaa !56
  %33 = call ptr @Cudd_bddIthVar(ptr noundef %32, i32 noundef 2)
  store ptr %33, ptr %10, align 8, !tbaa !58
  %34 = load ptr, ptr %5, align 8, !tbaa !56
  %35 = load ptr, ptr %8, align 8, !tbaa !58
  %36 = load ptr, ptr %10, align 8, !tbaa !58
  %37 = load ptr, ptr %9, align 8, !tbaa !58
  %38 = call ptr @Cudd_bddIte(ptr noundef %34, ptr noundef %35, ptr noundef %36, ptr noundef %37)
  %39 = load ptr, ptr %6, align 8, !tbaa !3
  %40 = getelementptr inbounds nuw %struct.Abc_Obj_t_, ptr %39, i32 0, i32 6
  store ptr %38, ptr %40, align 8, !tbaa !60
  %41 = load ptr, ptr %6, align 8, !tbaa !3
  %42 = getelementptr inbounds nuw %struct.Abc_Obj_t_, ptr %41, i32 0, i32 6
  %43 = load ptr, ptr %42, align 8, !tbaa !60
  call void @Cudd_Ref(ptr noundef %43)
  %44 = load ptr, ptr %3, align 8, !tbaa !41
  %45 = call ptr @Abc_NtkCreateNode(ptr noundef %44)
  store ptr %45, ptr %7, align 8, !tbaa !3
  %46 = load ptr, ptr %7, align 8, !tbaa !3
  %47 = load ptr, ptr %4, align 8, !tbaa !53
  %48 = getelementptr inbounds ptr, ptr %47, i64 0
  %49 = load ptr, ptr %48, align 8, !tbaa !3
  call void @Abc_ObjAddFanin(ptr noundef %46, ptr noundef %49)
  %50 = load ptr, ptr %7, align 8, !tbaa !3
  %51 = load ptr, ptr %4, align 8, !tbaa !53
  %52 = getelementptr inbounds ptr, ptr %51, i64 1
  %53 = load ptr, ptr %52, align 8, !tbaa !3
  call void @Abc_ObjAddFanin(ptr noundef %50, ptr noundef %53)
  %54 = load ptr, ptr %7, align 8, !tbaa !3
  %55 = load ptr, ptr %6, align 8, !tbaa !3
  call void @Abc_ObjAddFanin(ptr noundef %54, ptr noundef %55)
  %56 = load ptr, ptr %7, align 8, !tbaa !3
  %57 = load ptr, ptr %4, align 8, !tbaa !53
  %58 = getelementptr inbounds ptr, ptr %57, i64 4
  %59 = load ptr, ptr %58, align 8, !tbaa !3
  call void @Abc_ObjAddFanin(ptr noundef %56, ptr noundef %59)
  %60 = load ptr, ptr %7, align 8, !tbaa !3
  %61 = load ptr, ptr %4, align 8, !tbaa !53
  %62 = getelementptr inbounds ptr, ptr %61, i64 5
  %63 = load ptr, ptr %62, align 8, !tbaa !3
  call void @Abc_ObjAddFanin(ptr noundef %60, ptr noundef %63)
  %64 = load ptr, ptr %5, align 8, !tbaa !56
  %65 = call ptr @Cudd_bddIthVar(ptr noundef %64, i32 noundef 0)
  store ptr %65, ptr %8, align 8, !tbaa !58
  %66 = load ptr, ptr %5, align 8, !tbaa !56
  %67 = call ptr @Cudd_bddIthVar(ptr noundef %66, i32 noundef 2)
  store ptr %67, ptr %9, align 8, !tbaa !58
  %68 = load ptr, ptr %5, align 8, !tbaa !56
  %69 = load ptr, ptr %5, align 8, !tbaa !56
  %70 = call ptr @Cudd_bddIthVar(ptr noundef %69, i32 noundef 1)
  %71 = load ptr, ptr %5, align 8, !tbaa !56
  %72 = call ptr @Cudd_bddIthVar(ptr noundef %71, i32 noundef 4)
  %73 = load ptr, ptr %5, align 8, !tbaa !56
  %74 = call ptr @Cudd_bddIthVar(ptr noundef %73, i32 noundef 3)
  %75 = call ptr @Cudd_bddIte(ptr noundef %68, ptr noundef %70, ptr noundef %72, ptr noundef %74)
  store ptr %75, ptr %10, align 8, !tbaa !58
  %76 = load ptr, ptr %10, align 8, !tbaa !58
  call void @Cudd_Ref(ptr noundef %76)
  %77 = load ptr, ptr %5, align 8, !tbaa !56
  %78 = load ptr, ptr %8, align 8, !tbaa !58
  %79 = load ptr, ptr %10, align 8, !tbaa !58
  %80 = load ptr, ptr %9, align 8, !tbaa !58
  %81 = call ptr @Cudd_bddIte(ptr noundef %77, ptr noundef %78, ptr noundef %79, ptr noundef %80)
  %82 = load ptr, ptr %7, align 8, !tbaa !3
  %83 = getelementptr inbounds nuw %struct.Abc_Obj_t_, ptr %82, i32 0, i32 6
  store ptr %81, ptr %83, align 8, !tbaa !60
  %84 = load ptr, ptr %7, align 8, !tbaa !3
  %85 = getelementptr inbounds nuw %struct.Abc_Obj_t_, ptr %84, i32 0, i32 6
  %86 = load ptr, ptr %85, align 8, !tbaa !60
  call void @Cudd_Ref(ptr noundef %86)
  %87 = load ptr, ptr %5, align 8, !tbaa !56
  %88 = load ptr, ptr %10, align 8, !tbaa !58
  call void @Cudd_RecursiveDeref(ptr noundef %87, ptr noundef %88)
  %89 = load ptr, ptr %7, align 8, !tbaa !3
  call void @llvm.lifetime.end.p0(i64 8, ptr %10) #12
  call void @llvm.lifetime.end.p0(i64 8, ptr %9) #12
  call void @llvm.lifetime.end.p0(i64 8, ptr %8) #12
  call void @llvm.lifetime.end.p0(i64 8, ptr %7) #12
  call void @llvm.lifetime.end.p0(i64 8, ptr %6) #12
  call void @llvm.lifetime.end.p0(i64 8, ptr %5) #12
  ret ptr %89
}