; Function Attrs: nounwind uwtable
define noundef ptr @Abc_NtkBddMux412a(ptr noundef %0, ptr noundef readonly captures(none) %1) local_unnamed_addr #0 {
  %3 = getelementptr inbounds nuw i8, ptr %0, i64 256
  %4 = load ptr, ptr %3, align 8, !tbaa !48
  %5 = tail call ptr @Abc_NtkCreateObj(ptr noundef %0, i32 noundef 7) #20
  %6 = getelementptr inbounds nuw i8, ptr %1, i64 8
  %7 = load ptr, ptr %6, align 8, !tbaa !49
  tail call void @Abc_ObjAddFanin(ptr noundef %5, ptr noundef %7) #20
  %8 = getelementptr inbounds nuw i8, ptr %1, i64 16
  %9 = load ptr, ptr %8, align 8, !tbaa !49
  tail call void @Abc_ObjAddFanin(ptr noundef %5, ptr noundef %9) #20
  %10 = getelementptr inbounds nuw i8, ptr %1, i64 24
  %11 = load ptr, ptr %10, align 8, !tbaa !49
  tail call void @Abc_ObjAddFanin(ptr noundef %5, ptr noundef %11) #20
  %12 = tail call ptr @Cudd_bddIthVar(ptr noundef %4, i32 noundef 0) #20
  %13 = tail call ptr @Cudd_bddIthVar(ptr noundef %4, i32 noundef 1) #20
  %14 = tail call ptr @Cudd_bddIthVar(ptr noundef %4, i32 noundef 2) #20
  %15 = tail call ptr @Cudd_bddIte(ptr noundef %4, ptr noundef %12, ptr noundef %14, ptr noundef %13) #20
  %16 = getelementptr inbounds nuw i8, ptr %5, i64 56
  store ptr %15, ptr %16, align 8, !tbaa !50
  tail call void @Cudd_Ref(ptr noundef %15) #20
  %17 = tail call ptr @Abc_NtkCreateObj(ptr noundef %0, i32 noundef 7) #20
  %18 = load ptr, ptr %1, align 8, !tbaa !49
  tail call void @Abc_ObjAddFanin(ptr noundef %17, ptr noundef %18) #20
  %19 = load ptr, ptr %6, align 8, !tbaa !49
  tail call void @Abc_ObjAddFanin(ptr noundef %17, ptr noundef %19) #20
  tail call void @Abc_ObjAddFanin(ptr noundef %17, ptr noundef %5) #20
  %20 = getelementptr inbounds nuw i8, ptr %1, i64 32
  %21 = load ptr, ptr %20, align 8, !tbaa !49
  tail call void @Abc_ObjAddFanin(ptr noundef %17, ptr noundef %21) #20
  %22 = getelementptr inbounds nuw i8, ptr %1, i64 40
  %23 = load ptr, ptr %22, align 8, !tbaa !49
  tail call void @Abc_ObjAddFanin(ptr noundef %17, ptr noundef %23) #20
  %24 = tail call ptr @Cudd_bddIthVar(ptr noundef %4, i32 noundef 0) #20
  %25 = tail call ptr @Cudd_bddIthVar(ptr noundef %4, i32 noundef 2) #20
  %26 = tail call ptr @Cudd_bddIthVar(ptr noundef %4, i32 noundef 1) #20
  %27 = tail call ptr @Cudd_bddIthVar(ptr noundef %4, i32 noundef 4) #20
  %28 = tail call ptr @Cudd_bddIthVar(ptr noundef %4, i32 noundef 3) #20
  %29 = tail call ptr @Cudd_bddIte(ptr noundef %4, ptr noundef %26, ptr noundef %27, ptr noundef %28) #20
  tail call void @Cudd_Ref(ptr noundef %29) #20
  %30 = tail call ptr @Cudd_bddIte(ptr noundef %4, ptr noundef %24, ptr noundef %29, ptr noundef %25) #20
  %31 = getelementptr inbounds nuw i8, ptr %17, i64 56
  store ptr %30, ptr %31, align 8, !tbaa !50
  tail call void @Cudd_Ref(ptr noundef %30) #20
  tail call void @Cudd_RecursiveDeref(ptr noundef %4, ptr noundef %29) #20
  ret ptr %17
}